; Function Attrs: nounwind sspstrong uwtable
define hidden void @rb_gc_free_dsymbol(i64 noundef %0) local_unnamed_addr #0 {
  %2 = alloca i64, align 8
  %3 = alloca i32, align 4
  %4 = inttoptr i64 %0 to ptr
  %5 = getelementptr inbounds nuw i8, ptr %4, i64 24
  %6 = load i64, ptr %5, align 8, !tbaa !29
  %.not = icmp eq i64 %6, 0
  br i1 %.not, label %22, label %7

7:                                                ; preds = %1
  store i64 0, ptr %5, align 8, !tbaa !29
  call void @llvm.lifetime.start.p0(i64 4, ptr nonnull %3) #19
  %8 = load ptr, ptr @ruby_single_main_ractor, align 8, !tbaa !24
  %.not.i.i = icmp eq ptr %8, null
  br i1 %.not.i.i, label %9, label %rb_vm_lock_enter.exit

9:                                                ; preds = %7
  call void @rb_vm_lock_enter_body(ptr noundef nonnull %3) #19
  br label %rb_vm_lock_enter.exit

rb_vm_lock_enter.exit:                            ; preds = %7, %9
  call void @llvm.lifetime.start.p0(i64 8, ptr nonnull %2) #19
  store i64 %6, ptr %2, align 8, !tbaa !32
  %10 = load ptr, ptr getelementptr inbounds nuw (i8, ptr @ruby_global_symbols, i64 8), align 8, !tbaa !15
  %11 = call i32 @rb_st_delete(ptr noundef %10, ptr noundef nonnull %2, ptr noundef null) #19
  %.not.i = icmp eq i32 %11, 0
  br i1 %.not.i, label %12, label %unregister_sym.exit

12:                                               ; preds = %rb_vm_lock_enter.exit
  %13 = inttoptr i64 %6 to ptr
  %14 = load i64, ptr %13, align 8, !tbaa !26, !noalias !53
  %15 = and i64 %14, 8192
  %.not.i.i.i = icmp eq i64 %15, 0
  %16 = getelementptr inbounds nuw i8, ptr %13, i64 24
  br i1 %.not.i.i.i, label %RSTRING_PTR.exit.i, label %17

17:                                               ; preds = %12
  %.sroa.2.0.copyload.i.i = load ptr, ptr %16, align 8
  br label %RSTRING_PTR.exit.i

RSTRING_PTR.exit.i:                               ; preds = %17, %12
  %.sroa.2.0.i.i = phi ptr [ %.sroa.2.0.copyload.i.i, %17 ], [ %16, %12 ]
  call void (ptr, ...) @rb_bug(ptr noundef nonnull @.str.109, ptr noundef nonnull %4, ptr noundef %.sroa.2.0.i.i) #22
  unreachable

unregister_sym.exit:                              ; preds = %rb_vm_lock_enter.exit
  call void @llvm.lifetime.end.p0(i64 8, ptr nonnull %2) #19
  %18 = load i64, ptr getelementptr inbounds nuw (i8, ptr @ruby_global_symbols, i64 24), align 8, !tbaa !7
  %19 = call i64 @rb_hash_delete_entry(i64 noundef %18, i64 noundef %6) #19
  %20 = load ptr, ptr @ruby_single_main_ractor, align 8, !tbaa !24
  %.not.i.i7 = icmp eq ptr %20, null
  br i1 %.not.i.i7, label %21, label %rb_vm_lock_leave.exit

21:                                               ; preds = %unregister_sym.exit
  call void @rb_vm_lock_leave_body(ptr noundef nonnull %3) #19
  br label %rb_vm_lock_leave.exit

rb_vm_lock_leave.exit:                            ; preds = %unregister_sym.exit, %21
  call void @llvm.lifetime.end.p0(i64 4, ptr nonnull %3) #19
  br label %22

22:                                               ; preds = %rb_vm_lock_leave.exit, %1
  ret void
}